; Function Attrs: alwaysinline norecurse nounwind ssp uwtable
define internal void @"_ZN6open3d4core15ParallelForCPU_IZZZNS_1t8geometry6kernel5image5ToCPUERKNS0_6TensorERS6_ddENK3$_9clEvENKUlvE8_clEvEUllE_EEvRKNS0_6DeviceElRKT_.omp_outlined"(ptr noalias noundef readonly captures(none) %0, ptr noalias readnone captures(none) %1, ptr noundef nonnull readonly align 8 captures(none) dereferenceable(8) %2, ptr noundef nonnull readonly align 8 captures(none) dereferenceable(880) %3) #15 personality ptr @__gxx_personality_v0 {
  %5 = alloca i64, align 8
  %6 = alloca i64, align 8
  %7 = alloca i64, align 8
  %8 = alloca i32, align 4
  %9 = load i64, ptr %2, align 8, !tbaa !36
  %10 = icmp sgt i64 %9, 0
  br i1 %10, label %11, label %83

11:                                               ; preds = %4
  %12 = add nsw i64 %9, -1
  call void @llvm.lifetime.start.p0(i64 8, ptr nonnull %5) #16
  store i64 0, ptr %5, align 8, !tbaa !36
  call void @llvm.lifetime.start.p0(i64 8, ptr nonnull %6) #16
  store i64 %12, ptr %6, align 8, !tbaa !36
  call void @llvm.lifetime.start.p0(i64 8, ptr nonnull %7) #16
  store i64 1, ptr %7, align 8, !tbaa !36
  call void @llvm.lifetime.start.p0(i64 4, ptr nonnull %8) #16
  store i32 0, ptr %8, align 4, !tbaa !16
  %13 = load i32, ptr %0, align 4, !tbaa !16
  call void @__kmpc_for_static_init_8(ptr nonnull @1, i32 %13, i32 34, ptr nonnull %8, ptr nonnull %5, ptr nonnull %6, ptr nonnull %7, i64 1, i64 1)
  %14 = load i64, ptr %6, align 8, !tbaa !36
  %15 = call i64 @llvm.smin.i64(i64 %14, i64 %12)
  store i64 %15, ptr %6, align 8, !tbaa !36
  %16 = load i64, ptr %5, align 8, !tbaa !36
  %.not14 = icmp sgt i64 %16, %15
  br i1 %.not14, label %._crit_edge, label %.lr.ph

.lr.ph:                                           ; preds = %11
  %17 = getelementptr inbounds nuw i8, ptr %3, i64 16
  %18 = getelementptr inbounds nuw i8, ptr %3, i64 744
  %19 = load i8, ptr %18, align 8, !range !297
  %20 = trunc nuw i8 %19 to i1
  %21 = getelementptr inbounds nuw i8, ptr %3, i64 832
  %22 = getelementptr inbounds nuw i8, ptr %3, i64 792
  %23 = getelementptr inbounds nuw i8, ptr %3, i64 80
  %24 = load ptr, ptr %17, align 8
  %25 = getelementptr inbounds nuw i8, ptr %3, i64 536
  %26 = getelementptr inbounds nuw i8, ptr %3, i64 749
  %27 = load i8, ptr %26, align 1, !tbaa !41, !range !297, !noundef !298
  %28 = trunc nuw i8 %27 to i1
  %29 = getelementptr inbounds nuw i8, ptr %3, i64 600
  %30 = load ptr, ptr %25, align 8
  %31 = getelementptr inbounds nuw i8, ptr %3, i64 848
  %32 = load double, ptr %31, align 8, !tbaa !1280
  %33 = getelementptr inbounds nuw i8, ptr %3, i64 856
  %34 = load double, ptr %33, align 8, !tbaa !1283
  %35 = getelementptr inbounds nuw i8, ptr %3, i64 864
  %36 = getelementptr inbounds nuw i8, ptr %3, i64 872
  br label %37

37:                                               ; preds = %.lr.ph, %69
  %.015 = phi i64 [ %16, %.lr.ph ], [ %81, %69 ]
  %38 = load i64, ptr %3, align 8
  %.not.i.i = icmp sgt i64 %38, 0
  %39 = icmp sgt i64 %.015, -1
  call void @llvm.assume(i1 %39)
  br i1 %.not.i.i, label %40, label %_ZNK6open3d4core7Indexer11GetInputPtrImEEPT_ll.exit.thread.i

40:                                               ; preds = %37
  br i1 %20, label %43, label %.preheader.i.i.i

.preheader.i.i.i:                                 ; preds = %40
  %41 = load i64, ptr %21, align 8, !tbaa !967
  %42 = icmp sgt i64 %41, 0
  br i1 %42, label %.lr.ph.i.i.i, label %._crit_edge.i.i.i

43:                                               ; preds = %40
  %44 = getelementptr inbounds nuw i64, ptr %24, i64 %.015
  br label %_ZNK6open3d4core7Indexer11GetInputPtrImEEPT_ll.exit.thread.i

._crit_edge.i.i.i:                                ; preds = %.lr.ph.i.i.i, %.preheader.i.i.i
  %.016.lcssa.i.i.i = phi i64 [ 0, %.preheader.i.i.i ], [ %52, %.lr.ph.i.i.i ]
  %45 = getelementptr inbounds i8, ptr %24, i64 %.016.lcssa.i.i.i
  br label %_ZNK6open3d4core7Indexer11GetInputPtrImEEPT_ll.exit.thread.i

.lr.ph.i.i.i:                                     ; preds = %.preheader.i.i.i, %.lr.ph.i.i.i
  %.022.i.i.i = phi i64 [ %54, %.lr.ph.i.i.i ], [ 0, %.preheader.i.i.i ]
  %.01621.i.i.i = phi i64 [ %52, %.lr.ph.i.i.i ], [ 0, %.preheader.i.i.i ]
  %.01720.i.i.i = phi i64 [ %53, %.lr.ph.i.i.i ], [ %.015, %.preheader.i.i.i ]
  %46 = getelementptr inbounds nuw [5 x i64], ptr %22, i64 0, i64 %.022.i.i.i
  %47 = load i64, ptr %46, align 8, !tbaa !36
  %48 = sdiv i64 %.01720.i.i.i, %47
  %49 = getelementptr inbounds nuw [5 x i64], ptr %23, i64 0, i64 %.022.i.i.i
  %50 = load i64, ptr %49, align 8, !tbaa !36
  %51 = mul nsw i64 %50, %48
  %52 = add nsw i64 %51, %.01621.i.i.i
  %53 = srem i64 %.01720.i.i.i, %47
  %54 = add nuw nsw i64 %.022.i.i.i, 1
  %exitcond.not.i.i.i = icmp eq i64 %54, %41
  br i1 %exitcond.not.i.i.i, label %._crit_edge.i.i.i, label %.lr.ph.i.i.i, !llvm.loop !876

_ZNK6open3d4core7Indexer11GetInputPtrImEEPT_ll.exit.thread.i: ; preds = %37, %._crit_edge.i.i.i, %43
  %.0.i21.i = phi ptr [ %45, %._crit_edge.i.i.i ], [ %44, %43 ], [ null, %37 ]
  br i1 %28, label %57, label %.preheader.i.i12.i

.preheader.i.i12.i:                               ; preds = %_ZNK6open3d4core7Indexer11GetInputPtrImEEPT_ll.exit.thread.i
  %55 = load i64, ptr %21, align 8, !tbaa !967
  %56 = icmp sgt i64 %55, 0
  br i1 %56, label %.lr.ph.i.i15.i, label %._crit_edge.i.i13.i

57:                                               ; preds = %_ZNK6open3d4core7Indexer11GetInputPtrImEEPT_ll.exit.thread.i
  %58 = getelementptr inbounds nuw i64, ptr %30, i64 %.015
  br label %69

._crit_edge.i.i13.i:                              ; preds = %.lr.ph.i.i15.i, %.preheader.i.i12.i
  %.016.lcssa.i.i14.i = phi i64 [ 0, %.preheader.i.i12.i ], [ %66, %.lr.ph.i.i15.i ]
  %59 = getelementptr inbounds i8, ptr %30, i64 %.016.lcssa.i.i14.i
  br label %69

.lr.ph.i.i15.i:                                   ; preds = %.preheader.i.i12.i, %.lr.ph.i.i15.i
  %.022.i.i16.i = phi i64 [ %68, %.lr.ph.i.i15.i ], [ 0, %.preheader.i.i12.i ]
  %.01621.i.i17.i = phi i64 [ %66, %.lr.ph.i.i15.i ], [ 0, %.preheader.i.i12.i ]
  %.01720.i.i18.i = phi i64 [ %67, %.lr.ph.i.i15.i ], [ %.015, %.preheader.i.i12.i ]
  %60 = getelementptr inbounds nuw [5 x i64], ptr %22, i64 0, i64 %.022.i.i16.i
  %61 = load i64, ptr %60, align 8, !tbaa !36
  %62 = sdiv i64 %.01720.i.i18.i, %61
  %63 = getelementptr inbounds nuw [5 x i64], ptr %29, i64 0, i64 %.022.i.i16.i
  %64 = load i64, ptr %63, align 8, !tbaa !36
  %65 = mul nsw i64 %64, %62
  %66 = add nsw i64 %65, %.01621.i.i17.i
  %67 = srem i64 %.01720.i.i18.i, %61
  %68 = add nuw nsw i64 %.022.i.i16.i, 1
  %exitcond.not.i.i19.i = icmp eq i64 %68, %55
  br i1 %exitcond.not.i.i19.i, label %._crit_edge.i.i13.i, label %.lr.ph.i.i15.i, !llvm.loop !876

69:                                               ; preds = %._crit_edge.i.i13.i, %57
  %.018.i.i.i = phi ptr [ %58, %57 ], [ %59, %._crit_edge.i.i13.i ]
  %70 = load i64, ptr %.0.i21.i, align 8, !tbaa !36
  %71 = uitofp i64 %70 to double
  %72 = call double @llvm.fmuladd.f64(double %71, double %32, double %34)
  %73 = load i64, ptr %35, align 8, !tbaa !36
  %74 = uitofp i64 %73 to double
  %75 = fcmp olt double %72, %74
  %..i = select i1 %75, double %74, double %72
  %76 = load i64, ptr %36, align 8, !tbaa !36
  %77 = uitofp i64 %76 to double
  %78 = fcmp ogt double %..i, %77
  %79 = select i1 %78, double %77, double %..i
  %80 = fptoui double %79 to i64
  store i64 %80, ptr %.018.i.i.i, align 8, !tbaa !36
  %81 = add nuw nsw i64 %.015, 1
  %82 = load i64, ptr %6, align 8, !tbaa !36
  %.not.not = icmp slt i64 %.015, %82
  br i1 %.not.not, label %37, label %._crit_edge

._crit_edge:                                      ; preds = %69, %11
  call void @__kmpc_for_static_fini(ptr nonnull @1, i32 %13)
  call void @llvm.lifetime.end.p0(i64 4, ptr nonnull %8) #16
  call void @llvm.lifetime.end.p0(i64 8, ptr nonnull %7) #16
  call void @llvm.lifetime.end.p0(i64 8, ptr nonnull %6) #16
  call void @llvm.lifetime.end.p0(i64 8, ptr nonnull %5) #16
  br label %83

83:                                               ; preds = %._crit_edge, %4
  ret void
}